; Function Attrs: mustprogress nounwind uwtable
define noundef nonnull align 8 dereferenceable(16) ptr @_ZN2cv4gapi5fluid6BufferaSEOS2_(ptr noundef nonnull returned align 8 dereferenceable(16) %0, ptr noundef nonnull align 8 captures(none) dereferenceable(16) %1) local_unnamed_addr #18 align 2 {
  %3 = load ptr, ptr %1, align 8, !tbaa !89
  store ptr null, ptr %1, align 8, !tbaa !89
  tail call void @_ZNSt15__uniq_ptr_implIN2cv4gapi5fluid6Buffer4PrivESt14default_deleteIS4_EE5resetEPS4_(ptr noundef nonnull align 8 dereferenceable(8) %0, ptr noundef %3) #30
  %4 = getelementptr inbounds nuw i8, ptr %1, i64 8
  %5 = load ptr, ptr %4, align 8, !tbaa !117
  %6 = getelementptr inbounds nuw i8, ptr %0, i64 8
  store ptr %5, ptr %6, align 8, !tbaa !117
  ret ptr %0
}